target datalayout = "e-m:e-p270:32:32-p271:32:32-p272:64:64-i64:64-i128:128-f80:128-n8:16:32:64-S128"
target triple = "x86_64-pc-linux-gnu"

%struct.ossl_record_layer_st = type { ptr, ptr, i32, i32, i32, i32, i32, ptr, i16, ptr, ptr, ptr, i64, i32, [33 x %struct.tls_buffer_st], i64, i64, %struct.tls_buffer_st, [32 x %struct.tls_rl_record_st], i64, i64, i64, i32, ptr, i64, [8 x i8], i32, i32, i64, i32, ptr, ptr, i64, ptr, ptr, i32, i32, i32, i64, i64, i64, [64 x i8], i32, i32, i32, ptr, ptr, i32, i32, i64, ptr, ptr, %struct.dtls_bitmap_st, %struct.dtls_bitmap_st, i32, ptr, ptr, ptr, ptr, ptr, i64, ptr }
%struct.tls_buffer_st = type { ptr, i64, i64, i64, i64, i32, i32 }
%struct.tls_rl_record_st = type { i32, i32, i64, i64, i64, ptr, ptr, ptr, i16, [8 x i8] }
%struct.dtls_bitmap_st = type { i64, [8 x i8] }

@.str = private unnamed_addr constant [42 x i8] c"../openssl/ssl/record/methods/ssl3_meth.c\00", align 1
@__func__.ssl3_set_crypto_state = private unnamed_addr constant [22 x i8] c"ssl3_set_crypto_state\00", align 1

; Function Attrs: nounwind uwtable
define internal i32 @ssl3_set_crypto_state(ptr noundef %0, i32 noundef %1, ptr noundef %2, i64 noundef %3, ptr noundef %4, i64 noundef %5, ptr noundef %6, i64 noundef %7, ptr noundef %8, i64 noundef %9, i32 noundef %10, ptr noundef %11, ptr noundef %12) #0 {
  %14 = alloca i32, align 4
  %15 = alloca ptr, align 8
  %16 = alloca i32, align 4
  %17 = alloca ptr, align 8
  %18 = alloca i64, align 8
  %19 = alloca ptr, align 8
  %20 = alloca i64, align 8
  %21 = alloca ptr, align 8
  %22 = alloca i64, align 8
  %23 = alloca ptr, align 8
  %24 = alloca i64, align 8
  %25 = alloca i32, align 4
  %26 = alloca ptr, align 8
  %27 = alloca ptr, align 8
  %28 = alloca ptr, align 8
  %29 = alloca i32, align 4
  %30 = alloca i32, align 4
  store ptr %0, ptr %15, align 8, !tbaa !3
  store i32 %1, ptr %16, align 4, !tbaa !8
  store ptr %2, ptr %17, align 8, !tbaa !10
  store i64 %3, ptr %18, align 8, !tbaa !12
  store ptr %4, ptr %19, align 8, !tbaa !10
  store i64 %5, ptr %20, align 8, !tbaa !12
  store ptr %6, ptr %21, align 8, !tbaa !10
  store i64 %7, ptr %22, align 8, !tbaa !12
  store ptr %8, ptr %23, align 8, !tbaa !14
  store i64 %9, ptr %24, align 8, !tbaa !12
  store i32 %10, ptr %25, align 4, !tbaa !8
  store ptr %11, ptr %26, align 8, !tbaa !16
  store ptr %12, ptr %27, align 8, !tbaa !18
  call void @llvm.lifetime.start.p0(i64 8, ptr %28) #5
  call void @llvm.lifetime.start.p0(i64 4, ptr %29) #5
  %31 = load ptr, ptr %15, align 8, !tbaa !3
  %32 = getelementptr inbounds nuw %struct.ossl_record_layer_st, ptr %31, i32 0, i32 5
  %33 = load i32, ptr %32, align 4, !tbaa !20
  %34 = icmp eq i32 %33, 1
  %35 = select i1 %34, i32 1, i32 0
  store i32 %35, ptr %29, align 4, !tbaa !8
  %36 = load ptr, ptr %26, align 8, !tbaa !16
  %37 = icmp eq ptr %36, null
  br i1 %37, label %38, label %39

38:                                               ; preds = %13
  call void @ERR_new()
  call void @ERR_set_debug(ptr noundef @.str, i32 noundef 31, ptr noundef @__func__.ssl3_set_crypto_state)
  call void (i32, i32, ptr, ...) @ERR_set_error(i32 noundef 20, i32 noundef 786691, ptr noundef null)
  store i32 -2, ptr %14, align 4
  store i32 1, ptr %30, align 4
  br label %114

39:                                               ; preds = %13
  %40 = call ptr @EVP_CIPHER_CTX_new()
  %41 = load ptr, ptr %15, align 8, !tbaa !3
  %42 = getelementptr inbounds nuw %struct.ossl_record_layer_st, ptr %41, i32 0, i32 30
  store ptr %40, ptr %42, align 8, !tbaa !33
  %43 = icmp eq ptr %40, null
  br i1 %43, label %44, label %45

44:                                               ; preds = %39
  call void @ERR_new()
  call void @ERR_set_debug(ptr noundef @.str, i32 noundef 36, ptr noundef @__func__.ssl3_set_crypto_state)
  call void (i32, i32, ptr, ...) @ERR_set_error(i32 noundef 20, i32 noundef 786691, ptr noundef null)
  store i32 -2, ptr %14, align 4
  store i32 1, ptr %30, align 4
  br label %114

45:                                               ; preds = %39
  %46 = load ptr, ptr %15, align 8, !tbaa !3
  %47 = getelementptr inbounds nuw %struct.ossl_record_layer_st, ptr %46, i32 0, i32 30
  %48 = load ptr, ptr %47, align 8, !tbaa !33
  store ptr %48, ptr %28, align 8, !tbaa !34
  %49 = call ptr @EVP_MD_CTX_new()
  %50 = load ptr, ptr %15, align 8, !tbaa !3
  %51 = getelementptr inbounds nuw %struct.ossl_record_layer_st, ptr %50, i32 0, i32 33
  store ptr %49, ptr %51, align 8, !tbaa !35
  %52 = load ptr, ptr %15, align 8, !tbaa !3
  %53 = getelementptr inbounds nuw %struct.ossl_record_layer_st, ptr %52, i32 0, i32 33
  %54 = load ptr, ptr %53, align 8, !tbaa !35
  %55 = icmp eq ptr %54, null
  br i1 %55, label %56, label %57

56:                                               ; preds = %45
  call void @ERR_new()
  call void @ERR_set_debug(ptr noundef @.str, i32 noundef 43, ptr noundef @__func__.ssl3_set_crypto_state)
  call void (i32, i32, ptr, ...) @ERR_set_error(i32 noundef 20, i32 noundef 786691, ptr noundef null)
  store i32 -2, ptr %14, align 4
  store i32 1, ptr %30, align 4
  br label %114

57:                                               ; preds = %45
  %58 = load ptr, ptr %26, align 8, !tbaa !16
  %59 = icmp ne ptr %58, null
  br i1 %59, label %60, label %68

60:                                               ; preds = %57
  %61 = load ptr, ptr %15, align 8, !tbaa !3
  %62 = getelementptr inbounds nuw %struct.ossl_record_layer_st, ptr %61, i32 0, i32 33
  %63 = load ptr, ptr %62, align 8, !tbaa !35
  %64 = load ptr, ptr %26, align 8, !tbaa !16
  %65 = call i32 @EVP_DigestInit_ex(ptr noundef %63, ptr noundef %64, ptr noundef null)
  %66 = icmp sle i32 %65, 0
  br i1 %66, label %67, label %68

67:                                               ; preds = %60
  call void @ERR_new()
  call void @ERR_set_debug(ptr noundef @.str, i32 noundef 48, ptr noundef @__func__.ssl3_set_crypto_state)
  call void (i32, i32, ptr, ...) @ERR_set_error(i32 noundef 20, i32 noundef 786691, ptr noundef null)
  store i32 -2, ptr %14, align 4
  store i32 1, ptr %30, align 4
  br label %114

68:                                               ; preds = %60, %57
  %69 = load ptr, ptr %27, align 8, !tbaa !18
  %70 = icmp ne ptr %69, null
  br i1 %70, label %71, label %82

71:                                               ; preds = %68
  %72 = load ptr, ptr %27, align 8, !tbaa !18
  %73 = call ptr @COMP_CTX_new(ptr noundef %72)
  %74 = load ptr, ptr %15, align 8, !tbaa !3
  %75 = getelementptr inbounds nuw %struct.ossl_record_layer_st, ptr %74, i32 0, i32 34
  store ptr %73, ptr %75, align 8, !tbaa !36
  %76 = load ptr, ptr %15, align 8, !tbaa !3
  %77 = getelementptr inbounds nuw %struct.ossl_record_layer_st, ptr %76, i32 0, i32 34
  %78 = load ptr, ptr %77, align 8, !tbaa !36
  %79 = icmp eq ptr %78, null
  br i1 %79, label %80, label %81

80:                                               ; preds = %71
  call void @ERR_new()
  call void @ERR_set_debug(ptr noundef @.str, i32 noundef 56, ptr noundef @__func__.ssl3_set_crypto_state)
  call void (i32, i32, ptr, ...) @ERR_set_error(i32 noundef 20, i32 noundef 142, ptr noundef null)
  store i32 -2, ptr %14, align 4
  store i32 1, ptr %30, align 4
  br label %114

81:                                               ; preds = %71
  br label %82

82:                                               ; preds = %81, %68
  %83 = load ptr, ptr %28, align 8, !tbaa !34
  %84 = load ptr, ptr %23, align 8, !tbaa !14
  %85 = load ptr, ptr %17, align 8, !tbaa !10
  %86 = load ptr, ptr %19, align 8, !tbaa !10
  %87 = load i32, ptr %29, align 4, !tbaa !8
  %88 = call i32 @EVP_CipherInit_ex(ptr noundef %83, ptr noundef %84, ptr noundef null, ptr noundef %85, ptr noundef %86, i32 noundef %87)
  %89 = icmp ne i32 %88, 0
  br i1 %89, label %91, label %90

90:                                               ; preds = %82
  call void @ERR_new()
  call void @ERR_set_debug(ptr noundef @.str, i32 noundef 63, ptr noundef @__func__.ssl3_set_crypto_state)
  call void (i32, i32, ptr, ...) @ERR_set_error(i32 noundef 20, i32 noundef 786691, ptr noundef null)
  store i32 -2, ptr %14, align 4
  store i32 1, ptr %30, align 4
  br label %114

91:                                               ; preds = %82
  %92 = load ptr, ptr %28, align 8, !tbaa !34
  %93 = call ptr @EVP_CIPHER_CTX_get0_cipher(ptr noundef %92)
  %94 = call ptr @EVP_CIPHER_get0_provider(ptr noundef %93)
  %95 = icmp ne ptr %94, null
  br i1 %95, label %96, label %104

96:                                               ; preds = %91
  %97 = load ptr, ptr %15, align 8, !tbaa !3
  %98 = load ptr, ptr %28, align 8, !tbaa !34
  %99 = load ptr, ptr %23, align 8, !tbaa !14
  %100 = load ptr, ptr %26, align 8, !tbaa !16
  %101 = call i32 @ossl_set_tls_provider_parameters(ptr noundef %97, ptr noundef %98, ptr noundef %99, ptr noundef %100)
  %102 = icmp ne i32 %101, 0
  br i1 %102, label %104, label %103

103:                                              ; preds = %96
  store i32 -2, ptr %14, align 4
  store i32 1, ptr %30, align 4
  br label %114

104:                                              ; preds = %96, %91
  %105 = load i64, ptr %22, align 8, !tbaa !12
  %106 = icmp ugt i64 %105, 64
  br i1 %106, label %107, label %108

107:                                              ; preds = %104
  call void @ERR_new()
  call void @ERR_set_debug(ptr noundef @.str, i32 noundef 78, ptr noundef @__func__.ssl3_set_crypto_state)
  call void (i32, i32, ptr, ...) @ERR_set_error(i32 noundef 20, i32 noundef 786691, ptr noundef null)
  store i32 -2, ptr %14, align 4
  store i32 1, ptr %30, align 4
  br label %114

108:                                              ; preds = %104
  %109 = load ptr, ptr %15, align 8, !tbaa !3
  %110 = getelementptr inbounds nuw %struct.ossl_record_layer_st, ptr %109, i32 0, i32 41
  %111 = getelementptr inbounds [64 x i8], ptr %110, i64 0, i64 0
  %112 = load ptr, ptr %21, align 8, !tbaa !10
  %113 = load i64, ptr %22, align 8, !tbaa !12
  call void @llvm.memcpy.p0.p0.i64(ptr align 8 %111, ptr align 1 %112, i64 %113, i1 false)
  store i32 1, ptr %14, align 4
  store i32 1, ptr %30, align 4
  br label %114

114:                                              ; preds = %108, %107, %103, %90, %80, %67, %56, %44, %38
  call void @llvm.lifetime.end.p0(i64 4, ptr %29) #5
  call void @llvm.lifetime.end.p0(i64 8, ptr %28) #5
  %115 = load i32, ptr %14, align 4
  ret i32 %115
}