; Function Attrs: nounwind uwtable
define internal range(i32 -2, 2) i32 @ssl3_set_crypto_state(ptr noundef %0, i32 %1, ptr noundef %2, i64 %3, ptr noundef %4, i64 %5, ptr noundef readonly captures(none) %6, i64 noundef %7, ptr noundef %8, i64 %9, i32 %10, ptr noundef %11, ptr noundef %12) #0 {
  %14 = getelementptr inbounds nuw i8, ptr %0, i64 28
  %15 = load i32, ptr %14, align 4, !tbaa !3
  %16 = icmp eq i32 %15, 1
  %17 = zext i1 %16 to i32
  %18 = icmp eq ptr %11, null
  br i1 %18, label %19, label %20

19:                                               ; preds = %13
  tail call void @ERR_new() #5
  tail call void @ERR_set_debug(ptr noundef nonnull @.str, i32 noundef 31, ptr noundef nonnull @__func__.ssl3_set_crypto_state) #5
  tail call void (i32, i32, ptr, ...) @ERR_set_error(i32 noundef 20, i32 noundef 786691, ptr noundef null) #5
  br label %53

20:                                               ; preds = %13
  %21 = tail call ptr @EVP_CIPHER_CTX_new() #5
  %22 = getelementptr inbounds nuw i8, ptr %0, i64 4128
  store ptr %21, ptr %22, align 8, !tbaa !23
  %23 = icmp eq ptr %21, null
  br i1 %23, label %24, label %25

24:                                               ; preds = %20
  tail call void @ERR_new() #5
  tail call void @ERR_set_debug(ptr noundef nonnull @.str, i32 noundef 36, ptr noundef nonnull @__func__.ssl3_set_crypto_state) #5
  tail call void (i32, i32, ptr, ...) @ERR_set_error(i32 noundef 20, i32 noundef 786691, ptr noundef null) #5
  br label %53

25:                                               ; preds = %20
  %26 = tail call ptr @EVP_MD_CTX_new() #5
  %27 = getelementptr inbounds nuw i8, ptr %0, i64 4152
  store ptr %26, ptr %27, align 8, !tbaa !24
  %28 = icmp eq ptr %26, null
  br i1 %28, label %29, label %30

29:                                               ; preds = %25
  tail call void @ERR_new() #5
  tail call void @ERR_set_debug(ptr noundef nonnull @.str, i32 noundef 43, ptr noundef nonnull @__func__.ssl3_set_crypto_state) #5
  tail call void (i32, i32, ptr, ...) @ERR_set_error(i32 noundef 20, i32 noundef 786691, ptr noundef null) #5
  br label %53

30:                                               ; preds = %25
  %31 = tail call i32 @EVP_DigestInit_ex(ptr noundef nonnull %26, ptr noundef nonnull %11, ptr noundef null) #5
  %32 = icmp slt i32 %31, 1
  br i1 %32, label %33, label %34

33:                                               ; preds = %30
  tail call void @ERR_new() #5
  tail call void @ERR_set_debug(ptr noundef nonnull @.str, i32 noundef 48, ptr noundef nonnull @__func__.ssl3_set_crypto_state) #5
  tail call void (i32, i32, ptr, ...) @ERR_set_error(i32 noundef 20, i32 noundef 786691, ptr noundef null) #5
  br label %53

34:                                               ; preds = %30
  %.not = icmp eq ptr %12, null
  br i1 %.not, label %40, label %35

35:                                               ; preds = %34
  %36 = tail call ptr @COMP_CTX_new(ptr noundef nonnull %12) #5
  %37 = getelementptr inbounds nuw i8, ptr %0, i64 4160
  store ptr %36, ptr %37, align 8, !tbaa !25
  %38 = icmp eq ptr %36, null
  br i1 %38, label %39, label %40

39:                                               ; preds = %35
  tail call void @ERR_new() #5
  tail call void @ERR_set_debug(ptr noundef nonnull @.str, i32 noundef 56, ptr noundef nonnull @__func__.ssl3_set_crypto_state) #5
  tail call void (i32, i32, ptr, ...) @ERR_set_error(i32 noundef 20, i32 noundef 142, ptr noundef null) #5
  br label %53

40:                                               ; preds = %35, %34
  %41 = tail call i32 @EVP_CipherInit_ex(ptr noundef nonnull %21, ptr noundef %8, ptr noundef null, ptr noundef %2, ptr noundef %4, i32 noundef %17) #5
  %.not32 = icmp eq i32 %41, 0
  br i1 %.not32, label %42, label %43

42:                                               ; preds = %40
  tail call void @ERR_new() #5
  tail call void @ERR_set_debug(ptr noundef nonnull @.str, i32 noundef 63, ptr noundef nonnull @__func__.ssl3_set_crypto_state) #5
  tail call void (i32, i32, ptr, ...) @ERR_set_error(i32 noundef 20, i32 noundef 786691, ptr noundef null) #5
  br label %53

43:                                               ; preds = %40
  %44 = tail call ptr @EVP_CIPHER_CTX_get0_cipher(ptr noundef nonnull %21) #5
  %45 = tail call ptr @EVP_CIPHER_get0_provider(ptr noundef %44) #5
  %.not33 = icmp eq ptr %45, null
  br i1 %.not33, label %48, label %46

46:                                               ; preds = %43
  %47 = tail call i32 @ossl_set_tls_provider_parameters(ptr noundef nonnull %0, ptr noundef nonnull %21, ptr noundef %8, ptr noundef nonnull %11) #5
  %.not34 = icmp eq i32 %47, 0
  br i1 %.not34, label %53, label %48

48:                                               ; preds = %46, %43
  %49 = icmp ugt i64 %7, 64
  br i1 %49, label %50, label %51

50:                                               ; preds = %48
  tail call void @ERR_new() #5
  tail call void @ERR_set_debug(ptr noundef nonnull @.str, i32 noundef 78, ptr noundef nonnull @__func__.ssl3_set_crypto_state) #5
  tail call void (i32, i32, ptr, ...) @ERR_set_error(i32 noundef 20, i32 noundef 786691, ptr noundef null) #5
  br label %53

51:                                               ; preds = %48
  %52 = getelementptr inbounds nuw i8, ptr %0, i64 4208
  tail call void @llvm.memcpy.p0.p0.i64(ptr nonnull align 8 %52, ptr align 1 %6, i64 %7, i1 false)
  br label %53

53:                                               ; preds = %46, %51, %50, %42, %39, %33, %29, %24, %19
  %.0 = phi i32 [ -2, %19 ], [ -2, %24 ], [ -2, %29 ], [ -2, %33 ], [ -2, %39 ], [ -2, %50 ], [ 1, %51 ], [ -2, %42 ], [ -2, %46 ]
  ret i32 %.0
}